
nand_elf:     file format elf32-littlearm


Disassembly of section first:

00000000 <_start>:
   0:	e3a0da01 	mov	sp, #4096	; 0x1000
   4:	eb000011 	bl	50 <disable_watch_dog>
   8:	eb000018 	bl	70 <sdram_init>
   c:	eb000114 	bl	464 <nand_init>
  10:	e3a00203 	mov	r0, #805306368	; 0x30000000
  14:	e3a01a01 	mov	r1, #4096	; 0x1000
  18:	e3a02b02 	mov	r2, #2048	; 0x800
  1c:	eb00011f 	bl	4a0 <nand_read>
  20:	e3a0d30d 	mov	sp, #872415232	; 0x34000000
  24:	e59fe004 	ldr	lr, [pc, #4]	; 30 <loop1+0x4>
  28:	e3a0f203 	mov	pc, #805306368	; 0x30000000

0000002c <loop1>:
  2c:	eafffffe 	b	2c <loop1>
  30:	0000002c 	andeq	r0, r0, ip, lsr #32
  34:	00001941 	andeq	r1, r0, r1, asr #18
  38:	61656100 	cmnvs	r5, r0, lsl #2
  3c:	01006962 	tsteq	r0, r2, ror #18
  40:	0000000f 	andeq	r0, r0, pc
  44:	00543405 	subseq	r3, r4, r5, lsl #8
  48:	01080206 	tsteq	r8, r6, lsl #4
  4c:	00000109 	andeq	r0, r0, r9, lsl #2

00000050 <disable_watch_dog>:
  50:	e52db004 	push	{fp}		; (str fp, [sp, #-4]!)
  54:	e28db000 	add	fp, sp, #0
  58:	e3a03453 	mov	r3, #1392508928	; 0x53000000
  5c:	e3a02000 	mov	r2, #0
  60:	e5832000 	str	r2, [r3]
  64:	e28bd000 	add	sp, fp, #0
  68:	e8bd0800 	pop	{fp}
  6c:	e12fff1e 	bx	lr

00000070 <sdram_init>:
  70:	e92d0810 	push	{r4, fp}
  74:	e28db004 	add	fp, sp, #4
  78:	e24dd040 	sub	sp, sp, #64	; 0x40
  7c:	e59f308c 	ldr	r3, [pc, #140]	; 110 <sdram_init+0xa0>
  80:	e24bc040 	sub	ip, fp, #64	; 0x40
  84:	e1a04003 	mov	r4, r3
  88:	e8b4000f 	ldm	r4!, {r0, r1, r2, r3}
  8c:	e8ac000f 	stmia	ip!, {r0, r1, r2, r3}
  90:	e8b4000f 	ldm	r4!, {r0, r1, r2, r3}
  94:	e8ac000f 	stmia	ip!, {r0, r1, r2, r3}
  98:	e8b4000f 	ldm	r4!, {r0, r1, r2, r3}
  9c:	e8ac000f 	stmia	ip!, {r0, r1, r2, r3}
  a0:	e5943000 	ldr	r3, [r4]
  a4:	e58c3000 	str	r3, [ip]
  a8:	e3a03312 	mov	r3, #1207959552	; 0x48000000
  ac:	e50b300c 	str	r3, [fp, #-12]
  b0:	e3a03000 	mov	r3, #0
  b4:	e50b3008 	str	r3, [fp, #-8]
  b8:	ea00000e 	b	f8 <sdram_init+0x88>
  bc:	e51b3008 	ldr	r3, [fp, #-8]
  c0:	e1a03103 	lsl	r3, r3, #2
  c4:	e51b200c 	ldr	r2, [fp, #-12]
  c8:	e0823003 	add	r3, r2, r3
  cc:	e51b1008 	ldr	r1, [fp, #-8]
  d0:	e3e0203b 	mvn	r2, #59	; 0x3b
  d4:	e1a01101 	lsl	r1, r1, #2
  d8:	e24b0004 	sub	r0, fp, #4
  dc:	e0801001 	add	r1, r0, r1
  e0:	e0812002 	add	r2, r1, r2
  e4:	e5922000 	ldr	r2, [r2]
  e8:	e5832000 	str	r2, [r3]
  ec:	e51b3008 	ldr	r3, [fp, #-8]
  f0:	e2833001 	add	r3, r3, #1
  f4:	e50b3008 	str	r3, [fp, #-8]
  f8:	e51b3008 	ldr	r3, [fp, #-8]
  fc:	e353000c 	cmp	r3, #12
 100:	daffffed 	ble	bc <sdram_init+0x4c>
 104:	e24bd004 	sub	sp, fp, #4
 108:	e8bd0810 	pop	{r4, fp}
 10c:	e12fff1e 	bx	lr
 110:	00000114 	andeq	r0, r0, r4, lsl r1

00000114 <C.0.1270>:
 114:	22011110 	andcs	r1, r1, #4
 118:	00000700 	andeq	r0, r0, r0, lsl #14
 11c:	00000700 	andeq	r0, r0, r0, lsl #14
 120:	00000700 	andeq	r0, r0, r0, lsl #14
 124:	00000700 	andeq	r0, r0, r0, lsl #14
 128:	00000700 	andeq	r0, r0, r0, lsl #14
 12c:	00000700 	andeq	r0, r0, r0, lsl #14
 130:	00018005 	andeq	r8, r1, r5
 134:	00018005 	andeq	r8, r1, r5
 138:	008c07a3 	addeq	r0, ip, r3, lsr #15
 13c:	000000b1 	strheq	r0, [r0], -r1
 140:	00000030 	andeq	r0, r0, r0, lsr r0
 144:	00000030 	andeq	r0, r0, r0, lsr r0
 148:	3a434347 	bcc	10d0e6c <nand_register+0x10d08dc>
 14c:	74632820 	strbtvc	r2, [r3], #-2080	; 0x820
 150:	312d676e 	teqcc	sp, lr, ror #14
 154:	312e362e 	teqcc	lr, lr, lsr #12
 158:	2e342029 	cdpcs	0, 3, cr2, cr4, cr9, {1}
 15c:	00332e34 	eorseq	r2, r3, r4, lsr lr
 160:	00002941 	andeq	r2, r0, r1, asr #18
 164:	61656100 	cmnvs	r5, r0, lsl #2
 168:	01006962 	tsteq	r0, r2, ror #18
 16c:	0000001f 	andeq	r0, r0, pc, lsl r0
 170:	00543405 	subseq	r3, r4, r5, lsl #8
 174:	01080206 	tsteq	r8, r6, lsl #4
 178:	04120109 	ldreq	r0, [r2], #-265	; 0x109
 17c:	01150114 	tsteq	r5, r4, lsl r1
 180:	01180317 	tsteq	r8, r7, lsl r3
 184:	021a0119 	andseq	r0, sl, #1073741830	; 0x40000006
 188:	0000061e 	andeq	r0, r0, lr, lsl r6

0000018c <nand_enable_chip>:
 18c:	e52db004 	push	{fp}		; (str fp, [sp, #-4]!)
 190:	e28db000 	add	fp, sp, #0
 194:	e59f3020 	ldr	r3, [pc, #32]	; 1bc <nand_enable_chip+0x30>
 198:	e5933000 	ldr	r3, [r3]
 19c:	e59f2018 	ldr	r2, [pc, #24]	; 1bc <nand_enable_chip+0x30>
 1a0:	e5922000 	ldr	r2, [r2]
 1a4:	e5922004 	ldr	r2, [r2, #4]
 1a8:	e3822001 	orr	r2, r2, #1
 1ac:	e5832004 	str	r2, [r3, #4]
 1b0:	e28bd000 	add	sp, fp, #0
 1b4:	e8bd0800 	pop	{fp}
 1b8:	e12fff1e 	bx	lr
 1bc:	00000590 	muleq	r0, r0, r5

000001c0 <nand_unable_chip>:
 1c0:	e52db004 	push	{fp}		; (str fp, [sp, #-4]!)
 1c4:	e28db000 	add	fp, sp, #0
 1c8:	e59f3020 	ldr	r3, [pc, #32]	; 1f0 <nand_unable_chip+0x30>
 1cc:	e5933000 	ldr	r3, [r3]
 1d0:	e59f2018 	ldr	r2, [pc, #24]	; 1f0 <nand_unable_chip+0x30>
 1d4:	e5922000 	ldr	r2, [r2]
 1d8:	e5922004 	ldr	r2, [r2, #4]
 1dc:	e3c22001 	bic	r2, r2, #1
 1e0:	e5832004 	str	r2, [r3, #4]
 1e4:	e28bd000 	add	sp, fp, #0
 1e8:	e8bd0800 	pop	{fp}
 1ec:	e12fff1e 	bx	lr
 1f0:	00000590 	muleq	r0, r0, r5

000001f4 <nand_busy>:
 1f4:	e52db004 	push	{fp}		; (str fp, [sp, #-4]!)
 1f8:	e28db000 	add	fp, sp, #0
 1fc:	e59f3020 	ldr	r3, [pc, #32]	; 224 <nand_busy+0x30>
 200:	e5933000 	ldr	r3, [r3]
 204:	e5933020 	ldr	r3, [r3, #32]
 208:	e2033001 	and	r3, r3, #1
 20c:	e20330ff 	and	r3, r3, #255	; 0xff
 210:	e3530000 	cmp	r3, #0
 214:	1afffff8 	bne	1fc <nand_busy+0x8>
 218:	e28bd000 	add	sp, fp, #0
 21c:	e8bd0800 	pop	{fp}
 220:	e12fff1e 	bx	lr
 224:	00000590 	muleq	r0, r0, r5

00000228 <nand_cmd>:
 228:	e52db004 	push	{fp}		; (str fp, [sp, #-4]!)
 22c:	e28db000 	add	fp, sp, #0
 230:	e24dd00c 	sub	sp, sp, #12
 234:	e1a03000 	mov	r3, r0
 238:	e54b3005 	strb	r3, [fp, #-5]
 23c:	e59f3014 	ldr	r3, [pc, #20]	; 258 <nand_cmd+0x30>
 240:	e5933000 	ldr	r3, [r3]
 244:	e55b2005 	ldrb	r2, [fp, #-5]
 248:	e5832008 	str	r2, [r3, #8]
 24c:	e28bd000 	add	sp, fp, #0
 250:	e8bd0800 	pop	{fp}
 254:	e12fff1e 	bx	lr
 258:	00000590 	muleq	r0, r0, r5

0000025c <nand_addr>:
 25c:	e52db004 	push	{fp}		; (str fp, [sp, #-4]!)
 260:	e28db000 	add	fp, sp, #0
 264:	e24dd01c 	sub	sp, sp, #28
 268:	e50b0018 	str	r0, [fp, #-24]
 26c:	e3a03000 	mov	r3, #0
 270:	e50b3010 	str	r3, [fp, #-16]
 274:	e3a03000 	mov	r3, #0
 278:	e50b300c 	str	r3, [fp, #-12]
 27c:	e3a03000 	mov	r3, #0
 280:	e50b3008 	str	r3, [fp, #-8]
 284:	e51b3018 	ldr	r3, [fp, #-24]
 288:	e1a03a83 	lsl	r3, r3, #21
 28c:	e1a03aa3 	lsr	r3, r3, #21
 290:	e50b300c 	str	r3, [fp, #-12]
 294:	e51b3018 	ldr	r3, [fp, #-24]
 298:	e1a035a3 	lsr	r3, r3, #11
 29c:	e50b3010 	str	r3, [fp, #-16]
 2a0:	e59f3164 	ldr	r3, [pc, #356]	; 40c <nand_addr+0x1b0>
 2a4:	e5933000 	ldr	r3, [r3]
 2a8:	e51b200c 	ldr	r2, [fp, #-12]
 2ac:	e20220ff 	and	r2, r2, #255	; 0xff
 2b0:	e583200c 	str	r2, [r3, #12]
 2b4:	e3a03000 	mov	r3, #0
 2b8:	e50b3008 	str	r3, [fp, #-8]
 2bc:	e51b3008 	ldr	r3, [fp, #-8]
 2c0:	e3530000 	cmp	r3, #0
 2c4:	03a03000 	moveq	r3, #0
 2c8:	13a03001 	movne	r3, #1
 2cc:	e20330ff 	and	r3, r3, #255	; 0xff
 2d0:	e51b2008 	ldr	r2, [fp, #-8]
 2d4:	e2822001 	add	r2, r2, #1
 2d8:	e50b2008 	str	r2, [fp, #-8]
 2dc:	e3530000 	cmp	r3, #0
 2e0:	1afffff5 	bne	2bc <nand_addr+0x60>
 2e4:	e59f3120 	ldr	r3, [pc, #288]	; 40c <nand_addr+0x1b0>
 2e8:	e5933000 	ldr	r3, [r3]
 2ec:	e51b200c 	ldr	r2, [fp, #-12]
 2f0:	e1a02442 	asr	r2, r2, #8
 2f4:	e20220ff 	and	r2, r2, #255	; 0xff
 2f8:	e583200c 	str	r2, [r3, #12]
 2fc:	e3a03000 	mov	r3, #0
 300:	e50b3008 	str	r3, [fp, #-8]
 304:	e51b3008 	ldr	r3, [fp, #-8]
 308:	e3530000 	cmp	r3, #0
 30c:	03a03000 	moveq	r3, #0
 310:	13a03001 	movne	r3, #1
 314:	e20330ff 	and	r3, r3, #255	; 0xff
 318:	e51b2008 	ldr	r2, [fp, #-8]
 31c:	e2822001 	add	r2, r2, #1
 320:	e50b2008 	str	r2, [fp, #-8]
 324:	e3530000 	cmp	r3, #0
 328:	1afffff5 	bne	304 <nand_addr+0xa8>
 32c:	e59f30d8 	ldr	r3, [pc, #216]	; 40c <nand_addr+0x1b0>
 330:	e5933000 	ldr	r3, [r3]
 334:	e51b2010 	ldr	r2, [fp, #-16]
 338:	e20220ff 	and	r2, r2, #255	; 0xff
 33c:	e583200c 	str	r2, [r3, #12]
 340:	e3a03000 	mov	r3, #0
 344:	e50b3008 	str	r3, [fp, #-8]
 348:	e51b3008 	ldr	r3, [fp, #-8]
 34c:	e3530000 	cmp	r3, #0
 350:	03a03000 	moveq	r3, #0
 354:	13a03001 	movne	r3, #1
 358:	e20330ff 	and	r3, r3, #255	; 0xff
 35c:	e51b2008 	ldr	r2, [fp, #-8]
 360:	e2822001 	add	r2, r2, #1
 364:	e50b2008 	str	r2, [fp, #-8]
 368:	e3530000 	cmp	r3, #0
 36c:	1afffff5 	bne	348 <nand_addr+0xec>
 370:	e59f3094 	ldr	r3, [pc, #148]	; 40c <nand_addr+0x1b0>
 374:	e5933000 	ldr	r3, [r3]
 378:	e51b2010 	ldr	r2, [fp, #-16]
 37c:	e1a02442 	asr	r2, r2, #8
 380:	e20220ff 	and	r2, r2, #255	; 0xff
 384:	e583200c 	str	r2, [r3, #12]
 388:	e3a03000 	mov	r3, #0
 38c:	e50b3008 	str	r3, [fp, #-8]
 390:	e51b3008 	ldr	r3, [fp, #-8]
 394:	e3530000 	cmp	r3, #0
 398:	03a03000 	moveq	r3, #0
 39c:	13a03001 	movne	r3, #1
 3a0:	e20330ff 	and	r3, r3, #255	; 0xff
 3a4:	e51b2008 	ldr	r2, [fp, #-8]
 3a8:	e2822001 	add	r2, r2, #1
 3ac:	e50b2008 	str	r2, [fp, #-8]
 3b0:	e3530000 	cmp	r3, #0
 3b4:	1afffff5 	bne	390 <nand_addr+0x134>
 3b8:	e59f304c 	ldr	r3, [pc, #76]	; 40c <nand_addr+0x1b0>
 3bc:	e5933000 	ldr	r3, [r3]
 3c0:	e51b2010 	ldr	r2, [fp, #-16]
 3c4:	e1a02842 	asr	r2, r2, #16
 3c8:	e2022003 	and	r2, r2, #3
 3cc:	e583200c 	str	r2, [r3, #12]
 3d0:	e3a03000 	mov	r3, #0
 3d4:	e50b3008 	str	r3, [fp, #-8]
 3d8:	e51b3008 	ldr	r3, [fp, #-8]
 3dc:	e3530000 	cmp	r3, #0
 3e0:	03a03000 	moveq	r3, #0
 3e4:	13a03001 	movne	r3, #1
 3e8:	e20330ff 	and	r3, r3, #255	; 0xff
 3ec:	e51b2008 	ldr	r2, [fp, #-8]
 3f0:	e2822001 	add	r2, r2, #1
 3f4:	e50b2008 	str	r2, [fp, #-8]
 3f8:	e3530000 	cmp	r3, #0
 3fc:	1afffff5 	bne	3d8 <nand_addr+0x17c>
 400:	e28bd000 	add	sp, fp, #0
 404:	e8bd0800 	pop	{fp}
 408:	e12fff1e 	bx	lr
 40c:	00000590 	muleq	r0, r0, r5

00000410 <nand_reset>:
 410:	e92d4800 	push	{fp, lr}
 414:	e28db004 	add	fp, sp, #4
 418:	ebffff5b 	bl	18c <nand_enable_chip>
 41c:	e3a000ff 	mov	r0, #255	; 0xff
 420:	ebffff80 	bl	228 <nand_cmd>
 424:	ebffff72 	bl	1f4 <nand_busy>
 428:	ebffff64 	bl	1c0 <nand_unable_chip>
 42c:	e24bd004 	sub	sp, fp, #4
 430:	e8bd4800 	pop	{fp, lr}
 434:	e12fff1e 	bx	lr

00000438 <nand_data_read>:
 438:	e52db004 	push	{fp}		; (str fp, [sp, #-4]!)
 43c:	e28db000 	add	fp, sp, #0
 440:	e59f3018 	ldr	r3, [pc, #24]	; 460 <nand_data_read+0x28>
 444:	e5933000 	ldr	r3, [r3]
 448:	e5933010 	ldr	r3, [r3, #16]
 44c:	e20330ff 	and	r3, r3, #255	; 0xff
 450:	e1a00003 	mov	r0, r3
 454:	e28bd000 	add	sp, fp, #0
 458:	e8bd0800 	pop	{fp}
 45c:	e12fff1e 	bx	lr
 460:	00000590 	muleq	r0, r0, r5

00000464 <nand_init>:
 464:	e92d4800 	push	{fp, lr}
 468:	e28db004 	add	fp, sp, #4
 46c:	e59f3028 	ldr	r3, [pc, #40]	; 49c <nand_init+0x38>
 470:	e5933000 	ldr	r3, [r3]
 474:	e3a02c03 	mov	r2, #768	; 0x300
 478:	e5832000 	str	r2, [r3]
 47c:	e59f3018 	ldr	r3, [pc, #24]	; 49c <nand_init+0x38>
 480:	e5933000 	ldr	r3, [r3]
 484:	e3a02013 	mov	r2, #19
 488:	e5832004 	str	r2, [r3, #4]
 48c:	ebffffdf 	bl	410 <nand_reset>
 490:	e24bd004 	sub	sp, fp, #4
 494:	e8bd4800 	pop	{fp, lr}
 498:	e12fff1e 	bx	lr
 49c:	00000590 	muleq	r0, r0, r5

000004a0 <nand_read>:
 4a0:	e92d4800 	push	{fp, lr}
 4a4:	e28db004 	add	fp, sp, #4
 4a8:	e24dd018 	sub	sp, sp, #24
 4ac:	e50b0010 	str	r0, [fp, #-16]
 4b0:	e50b1014 	str	r1, [fp, #-20]
 4b4:	e50b2018 	str	r2, [fp, #-24]
 4b8:	e3a03000 	mov	r3, #0
 4bc:	e50b300c 	str	r3, [fp, #-12]
 4c0:	e3a03000 	mov	r3, #0
 4c4:	e50b3008 	str	r3, [fp, #-8]
 4c8:	e51b3018 	ldr	r3, [fp, #-24]
 4cc:	e2033b02 	and	r3, r3, #2048	; 0x800
 4d0:	e3530000 	cmp	r3, #0
 4d4:	1a000029 	bne	580 <nand_read+0xe0>
 4d8:	ebffff2b 	bl	18c <nand_enable_chip>
 4dc:	e51b3014 	ldr	r3, [fp, #-20]
 4e0:	e50b300c 	str	r3, [fp, #-12]
 4e4:	ea00001c 	b	55c <nand_read+0xbc>
 4e8:	e3a00000 	mov	r0, #0
 4ec:	ebffff4d 	bl	228 <nand_cmd>
 4f0:	e51b300c 	ldr	r3, [fp, #-12]
 4f4:	e1a00003 	mov	r0, r3
 4f8:	ebffff57 	bl	25c <nand_addr>
 4fc:	e3a00030 	mov	r0, #48	; 0x30
 500:	ebffff48 	bl	228 <nand_cmd>
 504:	ebffff3a 	bl	1f4 <nand_busy>
 508:	e3a03000 	mov	r3, #0
 50c:	e50b3008 	str	r3, [fp, #-8]
 510:	ea00000d 	b	54c <nand_read+0xac>
 514:	ebffffc7 	bl	438 <nand_data_read>
 518:	e1a03000 	mov	r3, r0
 51c:	e1a02003 	mov	r2, r3
 520:	e51b3010 	ldr	r3, [fp, #-16]
 524:	e5c32000 	strb	r2, [r3]
 528:	e51b3010 	ldr	r3, [fp, #-16]
 52c:	e2833001 	add	r3, r3, #1
 530:	e50b3010 	str	r3, [fp, #-16]
 534:	e51b3008 	ldr	r3, [fp, #-8]
 538:	e2833001 	add	r3, r3, #1
 53c:	e50b3008 	str	r3, [fp, #-8]
 540:	e51b300c 	ldr	r3, [fp, #-12]
 544:	e2833001 	add	r3, r3, #1
 548:	e50b300c 	str	r3, [fp, #-12]
 54c:	e51b2008 	ldr	r2, [fp, #-8]
 550:	e51b3018 	ldr	r3, [fp, #-24]
 554:	e1520003 	cmp	r2, r3
 558:	3affffed 	bcc	514 <nand_read+0x74>
 55c:	e51b200c 	ldr	r2, [fp, #-12]
 560:	e51b1014 	ldr	r1, [fp, #-20]
 564:	e51b3018 	ldr	r3, [fp, #-24]
 568:	e0813003 	add	r3, r1, r3
 56c:	e1520003 	cmp	r2, r3
 570:	3affffdc 	bcc	4e8 <nand_read+0x48>
 574:	ebffff11 	bl	1c0 <nand_unable_chip>
 578:	e1a00000 	nop			; (mov r0, r0)
 57c:	ea000000 	b	584 <nand_read+0xe4>
 580:	e1a00000 	nop			; (mov r0, r0)
 584:	e24bd004 	sub	sp, fp, #4
 588:	e8bd4800 	pop	{fp, lr}
 58c:	e12fff1e 	bx	lr

00000590 <nand_register>:
 590:	4e000000 	cdpmi	0, 0, cr0, cr0, cr0, {0}
 594:	00002941 	andeq	r2, r0, r1, asr #18
 598:	61656100 	cmnvs	r5, r0, lsl #2
 59c:	01006962 	tsteq	r0, r2, ror #18
 5a0:	0000001f 	andeq	r0, r0, pc, lsl r0
 5a4:	00543405 	subseq	r3, r4, r5, lsl #8
 5a8:	01080206 	tsteq	r8, r6, lsl #4
 5ac:	04120109 	ldreq	r0, [r2], #-265	; 0x109
 5b0:	01150114 	tsteq	r5, r4, lsl r1
 5b4:	01180317 	tsteq	r8, r7, lsl r3
 5b8:	021a0119 	andseq	r0, sl, #1073741830	; 0x40000006
 5bc:	Address 0x000005bc is out of bounds.


Disassembly of section seconed:

30000000 <wait>:
30000000:	e52db004 	push	{fp}		; (str fp, [sp, #-4]!)
30000004:	e28db000 	add	fp, sp, #0
30000008:	e24dd00c 	sub	sp, sp, #12
3000000c:	e50b0008 	str	r0, [fp, #-8]
30000010:	ea000002 	b	30000020 <wait+0x20>
30000014:	e51b3008 	ldr	r3, [fp, #-8]
30000018:	e2433001 	sub	r3, r3, #1
3000001c:	e50b3008 	str	r3, [fp, #-8]
30000020:	e51b3008 	ldr	r3, [fp, #-8]
30000024:	e3530000 	cmp	r3, #0
30000028:	1afffff9 	bne	30000014 <wait+0x14>
3000002c:	e28bd000 	add	sp, fp, #0
30000030:	e8bd0800 	pop	{fp}
30000034:	e12fff1e 	bx	lr

30000038 <main>:
30000038:	e92d4800 	push	{fp, lr}
3000003c:	e28db004 	add	fp, sp, #4
30000040:	e24dd008 	sub	sp, sp, #8
30000044:	e3a03000 	mov	r3, #0
30000048:	e50b3008 	str	r3, [fp, #-8]
3000004c:	e59f304c 	ldr	r3, [pc, #76]	; 300000a0 <main+0x68>
30000050:	e3a02c15 	mov	r2, #5376	; 0x1500
30000054:	e5832000 	str	r2, [r3]
30000058:	ea000000 	b	30000060 <main+0x28>
3000005c:	e1a00000 	nop			; (mov r0, r0)
30000060:	e59f003c 	ldr	r0, [pc, #60]	; 300000a4 <main+0x6c>
30000064:	ebffffe5 	bl	30000000 <wait>
30000068:	e59f3038 	ldr	r3, [pc, #56]	; 300000a8 <main+0x70>
3000006c:	e51b2008 	ldr	r2, [fp, #-8]
30000070:	e1a02202 	lsl	r2, r2, #4
30000074:	e1e02002 	mvn	r2, r2
30000078:	e5832000 	str	r2, [r3]
3000007c:	e51b3008 	ldr	r3, [fp, #-8]
30000080:	e2833001 	add	r3, r3, #1
30000084:	e50b3008 	str	r3, [fp, #-8]
30000088:	e51b3008 	ldr	r3, [fp, #-8]
3000008c:	e3530008 	cmp	r3, #8
30000090:	1afffff1 	bne	3000005c <main+0x24>
30000094:	e3a03000 	mov	r3, #0
30000098:	e50b3008 	str	r3, [fp, #-8]
3000009c:	eaffffef 	b	30000060 <main+0x28>
300000a0:	56000050 	undefined instruction 0x56000050
300000a4:	00013880 	andeq	r3, r1, r0, lsl #17
300000a8:	56000054 	undefined instruction 0x56000054
300000ac:	3a434347 	bcc	310d0dd0 <main+0x10d0d98>
300000b0:	74632820 	strbtvc	r2, [r3], #-2080	; 0x820
300000b4:	312d676e 	teqcc	sp, lr, ror #14
300000b8:	312e362e 	teqcc	lr, lr, lsr #12
300000bc:	2e342029 	cdpcs	0, 3, cr2, cr4, cr9, {1}
300000c0:	00332e34 	eorseq	r2, r3, r4, lsr lr
300000c4:	00002941 	andeq	r2, r0, r1, asr #18
300000c8:	61656100 	cmnvs	r5, r0, lsl #2
300000cc:	01006962 	tsteq	r0, r2, ror #18
300000d0:	0000001f 	andeq	r0, r0, pc, lsl r0
300000d4:	00543405 	subseq	r3, r4, r5, lsl #8
300000d8:	01080206 	tsteq	r8, r6, lsl #4
300000dc:	04120109 	ldreq	r0, [r2], #-265	; 0x109
300000e0:	01150114 	tsteq	r5, r4, lsl r1
300000e4:	01180317 	tsteq	r8, r7, lsl r3
300000e8:	021a0119 	andseq	r0, sl, #1073741830	; 0x40000006
300000ec:	Address 0x300000ec is out of bounds.

